; Function Attrs: nounwind uwtable
define ptr @l___private_Std_Tactic_BVDecide_LRAT_Internal_Formula_RatAddResult_0__Std_Tactic_BVDecide_LRAT_Internal_DefaultFormula_performRatCheck_match__3_splitter___rarg(ptr noundef %0, ptr noundef %1, ptr noundef %2) #0 {
  %4 = getelementptr inbounds nuw i8, ptr %0, i64 8
  %5 = load ptr, ptr %4, align 8, !tbaa !4
  %6 = ptrtoint ptr %5 to i64
  %7 = and i64 %6, 1
  %.not = icmp eq i64 %7, 0
  br i1 %.not, label %8, label %lean_inc.exit26

8:                                                ; preds = %3
  %.val.i = load i32, ptr %5, align 4, !tbaa !8
  %9 = icmp sgt i32 %.val.i, 0
  br i1 %9, label %10, label %12, !prof !11

10:                                               ; preds = %8
  %11 = add nuw i32 %.val.i, 1
  store i32 %11, ptr %5, align 4, !tbaa !8
  br label %lean_inc.exit26

12:                                               ; preds = %8
  %.not.i30 = icmp eq i32 %.val.i, 0
  br i1 %.not.i30, label %lean_inc.exit26, label %13

13:                                               ; preds = %12
  tail call void @lean_inc_ref_cold(ptr noundef nonnull %5) #3
  br label %lean_inc.exit26

lean_inc.exit26:                                  ; preds = %13, %12, %10, %3
  %14 = getelementptr inbounds nuw i8, ptr %0, i64 16
  %15 = load ptr, ptr %14, align 8, !tbaa !4
  %16 = ptrtoint ptr %15 to i64
  %17 = and i64 %16, 1
  %.not46 = icmp eq i64 %17, 0
  br i1 %.not46, label %18, label %lean_inc.exit25

18:                                               ; preds = %lean_inc.exit26
  %.val.i31 = load i32, ptr %15, align 4, !tbaa !8
  %19 = icmp sgt i32 %.val.i31, 0
  br i1 %19, label %20, label %22, !prof !11

20:                                               ; preds = %18
  %21 = add nuw i32 %.val.i31, 1
  store i32 %21, ptr %15, align 4, !tbaa !8
  br label %lean_inc.exit25

22:                                               ; preds = %18
  %.not.i32 = icmp eq i32 %.val.i31, 0
  br i1 %.not.i32, label %lean_inc.exit25, label %23

23:                                               ; preds = %22
  tail call void @lean_inc_ref_cold(ptr noundef nonnull %15) #3
  br label %lean_inc.exit25

lean_inc.exit25:                                  ; preds = %23, %22, %20, %lean_inc.exit26
  %24 = getelementptr inbounds nuw i8, ptr %0, i64 24
  %25 = load ptr, ptr %24, align 8, !tbaa !4
  %26 = ptrtoint ptr %25 to i64
  %27 = and i64 %26, 1
  %.not47 = icmp eq i64 %27, 0
  br i1 %.not47, label %28, label %lean_inc.exit24

28:                                               ; preds = %lean_inc.exit25
  %.val.i34 = load i32, ptr %25, align 4, !tbaa !8
  %29 = icmp sgt i32 %.val.i34, 0
  br i1 %29, label %30, label %32, !prof !11

30:                                               ; preds = %28
  %31 = add nuw i32 %.val.i34, 1
  store i32 %31, ptr %25, align 4, !tbaa !8
  br label %lean_inc.exit24

32:                                               ; preds = %28
  %.not.i35 = icmp eq i32 %.val.i34, 0
  br i1 %.not.i35, label %lean_inc.exit24, label %33

33:                                               ; preds = %32
  tail call void @lean_inc_ref_cold(ptr noundef nonnull %25) #3
  br label %lean_inc.exit24

lean_inc.exit24:                                  ; preds = %33, %32, %30, %lean_inc.exit25
  %34 = getelementptr inbounds nuw i8, ptr %0, i64 32
  %35 = load ptr, ptr %34, align 8, !tbaa !4
  %36 = ptrtoint ptr %35 to i64
  %37 = and i64 %36, 1
  %.not48 = icmp eq i64 %37, 0
  br i1 %.not48, label %38, label %lean_inc.exit23

38:                                               ; preds = %lean_inc.exit24
  %.val.i37 = load i32, ptr %35, align 4, !tbaa !8
  %39 = icmp sgt i32 %.val.i37, 0
  br i1 %39, label %40, label %42, !prof !11

40:                                               ; preds = %38
  %41 = add nuw i32 %.val.i37, 1
  store i32 %41, ptr %35, align 4, !tbaa !8
  br label %lean_inc.exit23

42:                                               ; preds = %38
  %.not.i38 = icmp eq i32 %.val.i37, 0
  br i1 %.not.i38, label %lean_inc.exit23, label %43

43:                                               ; preds = %42
  tail call void @lean_inc_ref_cold(ptr noundef nonnull %35) #3
  br label %lean_inc.exit23

lean_inc.exit23:                                  ; preds = %43, %42, %40, %lean_inc.exit24
  %44 = ptrtoint ptr %0 to i64
  %45 = and i64 %44, 1
  %.not49 = icmp eq i64 %45, 0
  br i1 %.not49, label %46, label %lean_dec.exit27

46:                                               ; preds = %lean_inc.exit23
  %47 = load i32, ptr %0, align 4, !tbaa !8
  %48 = icmp sgt i32 %47, 1
  br i1 %48, label %49, label %51, !prof !11

49:                                               ; preds = %46
  %50 = add nsw i32 %47, -1
  store i32 %50, ptr %0, align 4, !tbaa !8
  br label %lean_dec.exit27

51:                                               ; preds = %46
  %.not.i = icmp eq i32 %47, 0
  br i1 %.not.i, label %lean_dec.exit27, label %52

52:                                               ; preds = %51
  tail call void @lean_dec_ref_cold(ptr noundef nonnull %0) #3
  br label %lean_dec.exit27

lean_dec.exit27:                                  ; preds = %52, %51, %49, %lean_inc.exit23
  %53 = getelementptr inbounds nuw i8, ptr %1, i64 8
  %54 = load ptr, ptr %53, align 8, !tbaa !4
  %55 = ptrtoint ptr %54 to i64
  %56 = and i64 %55, 1
  %.not50 = icmp eq i64 %56, 0
  br i1 %.not50, label %57, label %lean_inc.exit22

57:                                               ; preds = %lean_dec.exit27
  %.val.i40 = load i32, ptr %54, align 4, !tbaa !8
  %58 = icmp sgt i32 %.val.i40, 0
  br i1 %58, label %59, label %61, !prof !11

59:                                               ; preds = %57
  %60 = add nuw i32 %.val.i40, 1
  store i32 %60, ptr %54, align 4, !tbaa !8
  br label %lean_inc.exit22

61:                                               ; preds = %57
  %.not.i41 = icmp eq i32 %.val.i40, 0
  br i1 %.not.i41, label %lean_inc.exit22, label %62

62:                                               ; preds = %61
  tail call void @lean_inc_ref_cold(ptr noundef nonnull %54) #3
  br label %lean_inc.exit22

lean_inc.exit22:                                  ; preds = %62, %61, %59, %lean_dec.exit27
  %63 = getelementptr inbounds nuw i8, ptr %1, i64 16
  %64 = load ptr, ptr %63, align 8, !tbaa !4
  %65 = ptrtoint ptr %64 to i64
  %66 = and i64 %65, 1
  %.not51 = icmp eq i64 %66, 0
  br i1 %.not51, label %67, label %lean_inc.exit

67:                                               ; preds = %lean_inc.exit22
  %.val.i43 = load i32, ptr %64, align 4, !tbaa !8
  %68 = icmp sgt i32 %.val.i43, 0
  br i1 %68, label %69, label %71, !prof !11

69:                                               ; preds = %67
  %70 = add nuw i32 %.val.i43, 1
  store i32 %70, ptr %64, align 4, !tbaa !8
  br label %lean_inc.exit

71:                                               ; preds = %67
  %.not.i44 = icmp eq i32 %.val.i43, 0
  br i1 %.not.i44, label %lean_inc.exit, label %72

72:                                               ; preds = %71
  tail call void @lean_inc_ref_cold(ptr noundef nonnull %64) #3
  br label %lean_inc.exit

lean_inc.exit:                                    ; preds = %72, %71, %69, %lean_inc.exit22
  %73 = ptrtoint ptr %1 to i64
  %74 = and i64 %73, 1
  %.not52 = icmp eq i64 %74, 0
  br i1 %.not52, label %75, label %lean_dec.exit

75:                                               ; preds = %lean_inc.exit
  %76 = load i32, ptr %1, align 4, !tbaa !8
  %77 = icmp sgt i32 %76, 1
  br i1 %77, label %78, label %80, !prof !11

78:                                               ; preds = %75
  %79 = add nsw i32 %76, -1
  store i32 %79, ptr %1, align 4, !tbaa !8
  br label %lean_dec.exit

80:                                               ; preds = %75
  %.not.i28 = icmp eq i32 %76, 0
  br i1 %.not.i28, label %lean_dec.exit, label %81

81:                                               ; preds = %80
  tail call void @lean_dec_ref_cold(ptr noundef nonnull %1) #3
  br label %lean_dec.exit

lean_dec.exit:                                    ; preds = %81, %80, %78, %lean_inc.exit
  %82 = tail call ptr @lean_apply_6(ptr noundef %2, ptr noundef %5, ptr noundef %15, ptr noundef %25, ptr noundef %35, ptr noundef %54, ptr noundef %64) #3
  ret ptr %82
}